target datalayout = "e-m:e-p270:32:32-p271:32:32-p272:64:64-i64:64-i128:128-f80:128-n8:16:32:64-S128"
target triple = "x86_64-pc-linux-gnu"

%struct.rb_data_type_struct = type { ptr, %struct.anon.19, ptr, ptr, i64 }
%struct.anon.19 = type { ptr, ptr, ptr, ptr, [1 x ptr] }
%union.pthread_mutex_t = type { %struct.__pthread_mutex_s }
%struct.__pthread_mutex_s = type { i32, i32, i32, i32, i32, i16, i16, %struct.__pthread_internal_list }
%struct.__pthread_internal_list = type { ptr, ptr }
%struct.ccan_list_head = type { %struct.ccan_list_node }
%struct.ccan_list_node = type { ptr, ptr }
%struct.rb_thread_struct = type { %struct.ccan_list_node, i64, ptr, ptr, ptr, ptr, %struct.rb_thread_sched_item, i8, i32, i64, ptr, i64, i64, i8, i8, i32, ptr, i64, i64, i64, i64, %union.pthread_mutex_t, %struct.rb_unblock_callback, i64, ptr, %struct.ccan_list_head, ptr, %union.anon, i32, i64, ptr, i64, i32, i64, ptr, %struct.rb_ext_config }
%struct.rb_thread_sched_item = type { %struct.anon.7, %struct.rb_thread_sched_waiting, i8, i8, ptr, ptr }
%struct.anon.7 = type { %struct.ccan_list_node, %struct.ccan_list_node, %struct.ccan_list_node, %struct.ccan_list_node, %struct.ccan_list_node }
%struct.rb_thread_sched_waiting = type { i32, %struct.anon.8, %struct.ccan_list_node }
%struct.anon.8 = type { i64, i32, i32 }
%struct.rb_unblock_callback = type { ptr, ptr }
%union.anon = type { %struct.anon.9 }
%struct.anon.9 = type { i64, i64, i32 }
%struct.rb_ext_config = type { i8 }
%struct.rb_execution_context_struct = type { ptr, i64, ptr, ptr, i32, i32, ptr, ptr, ptr, i64, i64, i64, ptr, i64, ptr, i64, i64, i8, i8, i64, %struct.anon.11 }
%struct.anon.11 = type { ptr, ptr, i64, [1 x %struct.__jmp_buf_tag] }
%struct.__jmp_buf_tag = type { [8 x i64], i32, %struct.__sigset_t }
%struct.__sigset_t = type { [16 x i64] }

@ruby_threadptr_data_type = external constant %struct.rb_data_type_struct, align 8
@.str.235 = private unnamed_addr constant [40 x i8] c"block supersedes default value argument\00", align 1
@.str.236 = private unnamed_addr constant [21 x i8] c"key not found: %+li\0B\00", align 1

; Function Attrs: inlinehint nounwind sspstrong uwtable
define internal i32 @rb_check_arity(i32 noundef %0, i32 noundef %1, i32 noundef %2) #1 {
  %4 = alloca i32, align 4
  %5 = alloca i32, align 4
  %6 = alloca i32, align 4
  store i32 %0, ptr %4, align 4, !tbaa !15
  store i32 %1, ptr %5, align 4, !tbaa !15
  store i32 %2, ptr %6, align 4, !tbaa !15
  %7 = load i32, ptr %4, align 4, !tbaa !15
  %8 = load i32, ptr %5, align 4, !tbaa !15
  %9 = icmp slt i32 %7, %8
  br i1 %9, label %17, label %10

10:                                               ; preds = %3
  %11 = load i32, ptr %6, align 4, !tbaa !15
  %12 = icmp ne i32 %11, -1
  br i1 %12, label %13, label %21

13:                                               ; preds = %10
  %14 = load i32, ptr %4, align 4, !tbaa !15
  %15 = load i32, ptr %6, align 4, !tbaa !15
  %16 = icmp sgt i32 %14, %15
  br i1 %16, label %17, label %21

17:                                               ; preds = %13, %3
  %18 = load i32, ptr %4, align 4, !tbaa !15
  %19 = load i32, ptr %5, align 4, !tbaa !15
  %20 = load i32, ptr %6, align 4, !tbaa !15
  call void @rb_error_arity(i32 noundef %18, i32 noundef %19, i32 noundef %20) #35
  unreachable

21:                                               ; preds = %13, %10
  %22 = load i32, ptr %4, align 4, !tbaa !15
  ret i32 %22
}

; Function Attrs: inlinehint nounwind sspstrong uwtable
define internal ptr @rb_thread_ptr(i64 noundef %0) #1 {
  %2 = alloca i64, align 8
  store i64 %0, ptr %2, align 8, !tbaa !22
  %3 = load i64, ptr %2, align 8, !tbaa !22
  %4 = call ptr @rb_check_typeddata(i64 noundef %3, ptr noundef @ruby_threadptr_data_type)
  ret ptr %4
}

; Function Attrs: nounwind sspstrong uwtable
define internal i64 @rb_thread_fetch(i32 noundef %0, ptr noundef %1, i64 noundef %2) #0 {
  %4 = alloca i64, align 8
  %5 = alloca i32, align 4
  %6 = alloca ptr, align 8
  %7 = alloca i64, align 8
  %8 = alloca i64, align 8
  %9 = alloca i64, align 8
  %10 = alloca i64, align 8
  %11 = alloca ptr, align 8
  %12 = alloca i32, align 4
  %13 = alloca i32, align 4
  store i32 %0, ptr %5, align 4, !tbaa !15
  store ptr %1, ptr %6, align 8, !tbaa !24
  store i64 %2, ptr %7, align 8, !tbaa !22
  call void @llvm.lifetime.start.p0(i64 8, ptr %8) #16
  call void @llvm.lifetime.start.p0(i64 8, ptr %9) #16
  call void @llvm.lifetime.start.p0(i64 8, ptr %10) #16
  call void @llvm.lifetime.start.p0(i64 8, ptr %11) #16
  %14 = load i64, ptr %7, align 8, !tbaa !22
  %15 = call ptr @rb_thread_ptr(i64 noundef %14)
  store ptr %15, ptr %11, align 8, !tbaa !12
  call void @llvm.lifetime.start.p0(i64 4, ptr %12) #16
  %16 = load i32, ptr %5, align 4, !tbaa !15
  %17 = call i32 @rb_check_arity(i32 noundef %16, i32 noundef 1, i32 noundef 2)
  %18 = load ptr, ptr %6, align 8, !tbaa !24
  %19 = getelementptr i64, ptr %18, i64 0
  %20 = load i64, ptr %19, align 8, !tbaa !22
  store i64 %20, ptr %8, align 8, !tbaa !22
  %21 = call i32 @rb_block_given_p()
  store i32 %21, ptr %12, align 4, !tbaa !15
  %22 = load i32, ptr %12, align 4, !tbaa !15
  %23 = icmp ne i32 %22, 0
  br i1 %23, label %24, label %28

24:                                               ; preds = %3
  %25 = load i32, ptr %5, align 4, !tbaa !15
  %26 = icmp eq i32 %25, 2
  br i1 %26, label %27, label %28

27:                                               ; preds = %24
  call void (ptr, ...) @rb_warn(ptr noundef @.str.235) #43
  br label %28

28:                                               ; preds = %27, %24, %3
  %29 = call i64 @rb_check_id(ptr noundef %8)
  store i64 %29, ptr %10, align 8, !tbaa !22
  %30 = load i64, ptr %10, align 8, !tbaa !22
  %31 = icmp eq i64 %30, 3153
  br i1 %31, label %32, label %38

32:                                               ; preds = %28
  %33 = load ptr, ptr %11, align 8, !tbaa !12
  %34 = getelementptr inbounds nuw %struct.rb_thread_struct, ptr %33, i32 0, i32 5
  %35 = load ptr, ptr %34, align 8, !tbaa !75
  %36 = getelementptr inbounds nuw %struct.rb_execution_context_struct, ptr %35, i32 0, i32 9
  %37 = load i64, ptr %36, align 8, !tbaa !313
  store i64 %37, ptr %4, align 8
  store i32 1, ptr %13, align 4
  br label %77

38:                                               ; preds = %28
  %39 = load i64, ptr %10, align 8, !tbaa !22
  %40 = icmp ne i64 %39, 0
  br i1 %40, label %41, label %59

41:                                               ; preds = %38
  %42 = load ptr, ptr %11, align 8, !tbaa !12
  %43 = getelementptr inbounds nuw %struct.rb_thread_struct, ptr %42, i32 0, i32 5
  %44 = load ptr, ptr %43, align 8, !tbaa !75
  %45 = getelementptr inbounds nuw %struct.rb_execution_context_struct, ptr %44, i32 0, i32 8
  %46 = load ptr, ptr %45, align 8, !tbaa !314
  %47 = icmp ne ptr %46, null
  br i1 %47, label %48, label %59

48:                                               ; preds = %41
  %49 = load ptr, ptr %11, align 8, !tbaa !12
  %50 = getelementptr inbounds nuw %struct.rb_thread_struct, ptr %49, i32 0, i32 5
  %51 = load ptr, ptr %50, align 8, !tbaa !75
  %52 = getelementptr inbounds nuw %struct.rb_execution_context_struct, ptr %51, i32 0, i32 8
  %53 = load ptr, ptr %52, align 8, !tbaa !314
  %54 = load i64, ptr %10, align 8, !tbaa !22
  %55 = call i32 @rb_id_table_lookup(ptr noundef %53, i64 noundef %54, ptr noundef %9)
  %56 = icmp ne i32 %55, 0
  br i1 %56, label %57, label %59

57:                                               ; preds = %48
  %58 = load i64, ptr %9, align 8, !tbaa !22
  store i64 %58, ptr %4, align 8
  store i32 1, ptr %13, align 4
  br label %77

59:                                               ; preds = %48, %41, %38
  %60 = load i32, ptr %12, align 4, !tbaa !15
  %61 = icmp ne i32 %60, 0
  br i1 %61, label %62, label %65

62:                                               ; preds = %59
  %63 = load i64, ptr %8, align 8, !tbaa !22
  %64 = call i64 @rb_yield(i64 noundef %63)
  store i64 %64, ptr %4, align 8
  store i32 1, ptr %13, align 4
  br label %77

65:                                               ; preds = %59
  %66 = load i32, ptr %5, align 4, !tbaa !15
  %67 = icmp eq i32 %66, 1
  br i1 %67, label %68, label %73

68:                                               ; preds = %65
  %69 = load i64, ptr %8, align 8, !tbaa !22
  %70 = call i64 (ptr, ...) @rb_sprintf(ptr noundef @.str.236, i64 noundef %69)
  %71 = load i64, ptr %7, align 8, !tbaa !22
  %72 = load i64, ptr %8, align 8, !tbaa !22
  call void @rb_key_err_raise(i64 noundef %70, i64 noundef %71, i64 noundef %72) #35
  unreachable

73:                                               ; preds = %65
  %74 = load ptr, ptr %6, align 8, !tbaa !24
  %75 = getelementptr i64, ptr %74, i64 1
  %76 = load i64, ptr %75, align 8, !tbaa !22
  store i64 %76, ptr %4, align 8
  store i32 1, ptr %13, align 4
  br label %77

77:                                               ; preds = %73, %62, %57, %32
  call void @llvm.lifetime.end.p0(i64 4, ptr %12) #16
  call void @llvm.lifetime.end.p0(i64 8, ptr %11) #16
  call void @llvm.lifetime.end.p0(i64 8, ptr %10) #16
  call void @llvm.lifetime.end.p0(i64 8, ptr %9) #16
  call void @llvm.lifetime.end.p0(i64 8, ptr %8) #16
  %78 = load i64, ptr %4, align 8
  ret i64 %78
}