; Function Attrs: nounwind sspstrong uwtable
define internal i64 @rb_thread_fetch(i32 noundef %0, ptr noundef readonly captures(none) %1, i64 noundef %2) #0 {
  %4 = alloca i64, align 8
  %5 = alloca i64, align 8
  call void @llvm.lifetime.start.p0(i64 8, ptr nonnull %4) #17
  call void @llvm.lifetime.start.p0(i64 8, ptr nonnull %5) #17
  %6 = tail call ptr @rb_check_typeddata(i64 noundef %2, ptr noundef nonnull @ruby_threadptr_data_type) #17
  %7 = add i32 %0, -3
  %or.cond.i = icmp ult i32 %7, -2
  br i1 %or.cond.i, label %8, label %rb_check_arity.exit

8:                                                ; preds = %3
  tail call void @rb_error_arity(i32 noundef %0, i32 noundef 1, i32 noundef 2) #38
  unreachable

rb_check_arity.exit:                              ; preds = %3
  %9 = load i64, ptr %1, align 8, !tbaa !145
  store i64 %9, ptr %4, align 8, !tbaa !145
  %10 = tail call i32 @rb_block_given_p() #17
  %11 = icmp ne i32 %10, 0
  %12 = icmp eq i32 %0, 2
  %or.cond = and i1 %12, %11
  br i1 %or.cond, label %13, label %14

13:                                               ; preds = %rb_check_arity.exit
  tail call void (ptr, ...) @rb_warn(ptr noundef nonnull @.str.235) #52
  br label %14

14:                                               ; preds = %13, %rb_check_arity.exit
  %15 = call i64 @rb_check_id(ptr noundef nonnull %4) #17
  switch i64 %15, label %21 [
    i64 3153, label %16
    i64 0, label %30
  ]

16:                                               ; preds = %14
  %17 = getelementptr inbounds nuw i8, ptr %6, i64 48
  %18 = load ptr, ptr %17, align 8, !tbaa !74
  %19 = getelementptr inbounds nuw i8, ptr %18, i64 64
  %20 = load i64, ptr %19, align 8, !tbaa !300
  br label %43

21:                                               ; preds = %14
  %22 = getelementptr inbounds nuw i8, ptr %6, i64 48
  %23 = load ptr, ptr %22, align 8, !tbaa !74
  %24 = getelementptr inbounds nuw i8, ptr %23, i64 56
  %25 = load ptr, ptr %24, align 8, !tbaa !301
  %.not18 = icmp eq ptr %25, null
  br i1 %.not18, label %30, label %26

26:                                               ; preds = %21
  %27 = call i32 @rb_id_table_lookup(ptr noundef nonnull %25, i64 noundef %15, ptr noundef nonnull %5) #17
  %.not19 = icmp eq i32 %27, 0
  br i1 %.not19, label %30, label %28

28:                                               ; preds = %26
  %29 = load i64, ptr %5, align 8, !tbaa !145
  br label %43

30:                                               ; preds = %14, %26, %21
  br i1 %11, label %31, label %34

31:                                               ; preds = %30
  %32 = load i64, ptr %4, align 8, !tbaa !145
  %33 = call i64 @rb_yield(i64 noundef %32) #17
  br label %43

34:                                               ; preds = %30
  %35 = icmp eq i32 %0, 1
  br i1 %35, label %36, label %40

36:                                               ; preds = %34
  %37 = load i64, ptr %4, align 8, !tbaa !145
  %38 = call i64 (ptr, ...) @rb_sprintf(ptr noundef nonnull @.str.236, i64 noundef %37) #17
  %39 = load i64, ptr %4, align 8, !tbaa !145
  call fastcc void @rb_key_err_raise(i64 noundef %38, i64 noundef %2, i64 noundef %39) #46
  unreachable

40:                                               ; preds = %34
  %41 = getelementptr i8, ptr %1, i64 8
  %42 = load i64, ptr %41, align 8, !tbaa !145
  br label %43

43:                                               ; preds = %40, %31, %28, %16
  %.0 = phi i64 [ %20, %16 ], [ %29, %28 ], [ %33, %31 ], [ %42, %40 ]
  call void @llvm.lifetime.end.p0(i64 8, ptr nonnull %5) #17
  call void @llvm.lifetime.end.p0(i64 8, ptr nonnull %4) #17
  ret i64 %.0
}